target datalayout = "e-m:e-p270:32:32-p271:32:32-p272:64:64-i64:64-i128:128-f80:128-n8:16:32:64-S128"
target triple = "x86_64-pc-linux-gnu"

; Function Attrs: nounwind sspstrong uwtable
define dso_local void @generate_pattern(ptr noundef %0, i64 noundef %1, i64 noundef %2) #0 {
  %4 = alloca ptr, align 8
  %5 = alloca i64, align 8
  %6 = alloca i64, align 8
  %7 = alloca i32, align 4
  %8 = alloca i32, align 4
  %9 = alloca ptr, align 8
  %10 = alloca i8, align 1
  %11 = alloca ptr, align 8
  store ptr %0, ptr %4, align 8
  store i64 %1, ptr %5, align 8
  store i64 %2, ptr %6, align 8
  call void @llvm.lifetime.start.p0(i64 4, ptr %7) #14
  store i32 0, ptr %7, align 4, !annotation !4
  call void @llvm.lifetime.start.p0(i64 4, ptr %8) #14
  store i32 0, ptr %8, align 4, !annotation !4
  call void @llvm.lifetime.start.p0(i64 8, ptr %9) #14
  %12 = load ptr, ptr %4, align 8
  store ptr %12, ptr %9, align 8
  call void @llvm.lifetime.start.p0(i64 1, ptr %10) #14
  store i8 0, ptr %10, align 1, !annotation !4
  call void @llvm.lifetime.start.p0(i64 8, ptr %11) #14
  store ptr null, ptr %11, align 8, !annotation !4
  %13 = call i32 @rand() #14
  %14 = srem i32 %13, 256
  %15 = trunc i32 %14 to i8
  store i8 %15, ptr %10, align 1
  store i32 0, ptr %7, align 4
  br label %16

16:                                               ; preds = %41, %3
  %17 = load i32, ptr %7, align 4
  %18 = sext i32 %17 to i64
  %19 = load i64, ptr %5, align 8
  %20 = icmp ult i64 %18, %19
  br i1 %20, label %21, label %44

21:                                               ; preds = %16
  %22 = load i8, ptr %10, align 1
  %23 = add i8 %22, 1
  store i8 %23, ptr %10, align 1
  %24 = zext i8 %22 to i32
  %25 = srem i32 %24, 256
  %26 = trunc i32 %25 to i8
  %27 = load ptr, ptr %9, align 8
  %28 = load i32, ptr %7, align 4
  %29 = sext i32 %28 to i64
  %30 = getelementptr inbounds i8, ptr %27, i64 %29
  store i8 %26, ptr %30, align 1
  %31 = load i32, ptr %7, align 4
  %32 = sext i32 %31 to i64
  %33 = load i64, ptr %6, align 8
  %34 = urem i64 %32, %33
  %35 = icmp eq i64 %34, 0
  br i1 %35, label %36, label %40

36:                                               ; preds = %21
  %37 = call i32 @rand() #14
  %38 = srem i32 %37, 256
  %39 = trunc i32 %38 to i8
  store i8 %39, ptr %10, align 1
  br label %40

40:                                               ; preds = %36, %21
  br label %41

41:                                               ; preds = %40
  %42 = load i32, ptr %7, align 4
  %43 = add i32 %42, 1
  store i32 %43, ptr %7, align 4
  br label %16, !llvm.loop !7

44:                                               ; preds = %16
  store i32 0, ptr %7, align 4
  br label %45

45:                                               ; preds = %72, %44
  %46 = load i32, ptr %7, align 4
  %47 = sext i32 %46 to i64
  %48 = load i64, ptr %5, align 8
  %49 = load i64, ptr %6, align 8
  %50 = udiv i64 %48, %49
  %51 = icmp ult i64 %47, %50
  br i1 %51, label %52, label %75

52:                                               ; preds = %45
  %53 = load i32, ptr %7, align 4
  %54 = sext i32 %53 to i64
  %55 = load i64, ptr %6, align 8
  %56 = mul i64 %54, %55
  %57 = trunc i64 %56 to i32
  store i32 %57, ptr %8, align 4
  %58 = load i32, ptr %8, align 4
  %59 = sext i32 %58 to i64
  %60 = add i64 %59, 8
  %61 = load i64, ptr %5, align 8
  %62 = icmp ule i64 %60, %61
  br i1 %62, label %63, label %71

63:                                               ; preds = %52
  %64 = load ptr, ptr %9, align 8
  %65 = load i32, ptr %8, align 4
  %66 = sext i32 %65 to i64
  %67 = getelementptr inbounds i8, ptr %64, i64 %66
  store ptr %67, ptr %11, align 8
  %68 = load i32, ptr %7, align 4
  %69 = sext i32 %68 to i64
  %70 = load ptr, ptr %11, align 8
  store i64 %69, ptr %70, align 8
  br label %71

71:                                               ; preds = %63, %52
  br label %72

72:                                               ; preds = %71
  %73 = load i32, ptr %7, align 4
  %74 = add i32 %73, 1
  store i32 %74, ptr %7, align 4
  br label %45, !llvm.loop !9

75:                                               ; preds = %45
  call void @llvm.lifetime.end.p0(i64 8, ptr %11) #14
  call void @llvm.lifetime.end.p0(i64 1, ptr %10) #14
  call void @llvm.lifetime.end.p0(i64 8, ptr %9) #14
  call void @llvm.lifetime.end.p0(i64 4, ptr %8) #14
  call void @llvm.lifetime.end.p0(i64 4, ptr %7) #14
  ret void
}