; Function Attrs: nounwind sspstrong uwtable
define dso_local void @generate_pattern(ptr noundef writeonly captures(none) %0, i64 noundef %1, i64 noundef %2) local_unnamed_addr #0 {
  %4 = tail call i32 @rand() #13
  %.not29 = icmp eq i64 %1, 0
  br i1 %.not29, label %.preheader, label %.lr.ph.preheader

.lr.ph.preheader:                                 ; preds = %3
  %5 = trunc i32 %4 to i8
  br label %.lr.ph

.preheader:                                       ; preds = %16, %3
  %6 = udiv i64 %1, %2
  %.not30 = icmp ugt i64 %2, %1
  br i1 %.not30, label %._crit_edge, label %.lr.ph28

.lr.ph28:                                         ; preds = %.preheader
  %7 = trunc i64 %2 to i32
  br label %20

.lr.ph:                                           ; preds = %.lr.ph.preheader, %16
  %8 = phi i64 [ %18, %16 ], [ 0, %.lr.ph.preheader ]
  %.026 = phi i8 [ %.1, %16 ], [ %5, %.lr.ph.preheader ]
  %.02025 = phi i32 [ %17, %16 ], [ 0, %.lr.ph.preheader ]
  %9 = add i8 %.026, 1
  %10 = getelementptr inbounds i8, ptr %0, i64 %8
  store i8 %.026, ptr %10, align 1
  %11 = urem i64 %8, %2
  %12 = icmp eq i64 %11, 0
  br i1 %12, label %13, label %16

13:                                               ; preds = %.lr.ph
  %14 = tail call i32 @rand() #13
  %15 = trunc i32 %14 to i8
  br label %16

16:                                               ; preds = %.lr.ph, %13
  %.1 = phi i8 [ %15, %13 ], [ %9, %.lr.ph ]
  %17 = add i32 %.02025, 1
  %18 = sext i32 %17 to i64
  %19 = icmp ugt i64 %1, %18
  br i1 %19, label %.lr.ph, label %.preheader, !llvm.loop !9

20:                                               ; preds = %.lr.ph28, %27
  %21 = phi i64 [ 0, %.lr.ph28 ], [ %29, %27 ]
  %.12127 = phi i32 [ 0, %.lr.ph28 ], [ %28, %27 ]
  %22 = mul i32 %.12127, %7
  %23 = sext i32 %22 to i64
  %24 = add nsw i64 %23, 8
  %.not = icmp ugt i64 %24, %1
  br i1 %.not, label %27, label %25

25:                                               ; preds = %20
  %26 = getelementptr inbounds i8, ptr %0, i64 %23
  store i64 %21, ptr %26, align 8
  br label %27

27:                                               ; preds = %20, %25
  %28 = add i32 %.12127, 1
  %29 = sext i32 %28 to i64
  %30 = icmp ugt i64 %6, %29
  br i1 %30, label %20, label %._crit_edge, !llvm.loop !11

._crit_edge:                                      ; preds = %27, %.preheader
  ret void
}